
test4_p.riscv:     file format elf64-littleriscv


Disassembly of section .text.init:

0000000080000000 <_start>:
    80000000:	00010f97          	auipc	t6,0x10
    80000004:	000f8f93          	mv	t6,t6
    80000008:	000fb083          	ld	ra,0(t6) # 80010000 <_random_data0>
    8000000c:	008fb103          	ld	sp,8(t6)
    80000010:	010fb183          	ld	gp,16(t6)
    80000014:	018fb203          	ld	tp,24(t6)
    80000018:	020fb283          	ld	t0,32(t6)
    8000001c:	028fb303          	ld	t1,40(t6)
    80000020:	030fb383          	ld	t2,48(t6)
    80000024:	038fb403          	ld	s0,56(t6)
    80000028:	040fb483          	ld	s1,64(t6)
    8000002c:	048fb503          	ld	a0,72(t6)
    80000030:	050fb583          	ld	a1,80(t6)
    80000034:	058fb603          	ld	a2,88(t6)
    80000038:	060fb683          	ld	a3,96(t6)
    8000003c:	068fb703          	ld	a4,104(t6)
    80000040:	070fb783          	ld	a5,112(t6)
    80000044:	078fb803          	ld	a6,120(t6)
    80000048:	080fb883          	ld	a7,128(t6)
    8000004c:	088fb903          	ld	s2,136(t6)
    80000050:	090fb983          	ld	s3,144(t6)
    80000054:	098fba03          	ld	s4,152(t6)
    80000058:	0a0fba83          	ld	s5,160(t6)
    8000005c:	0a8fbb03          	ld	s6,168(t6)
    80000060:	0b0fbb83          	ld	s7,176(t6)
    80000064:	0b8fbc03          	ld	s8,184(t6)
    80000068:	0c0fbc83          	ld	s9,192(t6)
    8000006c:	0c8fbd03          	ld	s10,200(t6)
    80000070:	0d0fbd83          	ld	s11,208(t6)
    80000074:	0d8fbe03          	ld	t3,216(t6)
    80000078:	0e0fbe83          	ld	t4,224(t6)
    8000007c:	0e8fbf03          	ld	t5,232(t6)
    80000080:	0f0fbf83          	ld	t6,240(t6)
    80000084:	a4ed                	j	8000036e <reset_vector>

0000000080000086 <init_freg>:
    80000086:	00020f97          	auipc	t6,0x20
    8000008a:	f7af8f93          	addi	t6,t6,-134 # 80020000 <_random_data1>
    8000008e:	000fa007          	flw	ft0,0(t6)
    80000092:	008fa087          	flw	ft1,8(t6)
    80000096:	010fa107          	flw	ft2,16(t6)
    8000009a:	018fb187          	fld	ft3,24(t6)
    8000009e:	020fb207          	fld	ft4,32(t6)
    800000a2:	028fb287          	fld	ft5,40(t6)
    800000a6:	030fb307          	fld	ft6,48(t6)
    800000aa:	038fa387          	flw	ft7,56(t6)
    800000ae:	040fb407          	fld	fs0,64(t6)
    800000b2:	048fb487          	fld	fs1,72(t6)
    800000b6:	050fa507          	flw	fa0,80(t6)
    800000ba:	058fb587          	fld	fa1,88(t6)
    800000be:	060fb607          	fld	fa2,96(t6)
    800000c2:	068fb687          	fld	fa3,104(t6)
    800000c6:	070fa707          	flw	fa4,112(t6)
    800000ca:	078fb787          	fld	fa5,120(t6)
    800000ce:	080fb807          	fld	fa6,128(t6)
    800000d2:	088fa887          	flw	fa7,136(t6)
    800000d6:	090fa907          	flw	fs2,144(t6)
    800000da:	098fa987          	flw	fs3,152(t6)
    800000de:	0a0fba07          	fld	fs4,160(t6)
    800000e2:	0a8faa87          	flw	fs5,168(t6)
    800000e6:	0b0fbb07          	fld	fs6,176(t6)
    800000ea:	0b8fbb87          	fld	fs7,184(t6)
    800000ee:	0c0fbc07          	fld	fs8,192(t6)
    800000f2:	0c8fbc87          	fld	fs9,200(t6)
    800000f6:	0d0fbd07          	fld	fs10,208(t6)
    800000fa:	0d8fbd87          	fld	fs11,216(t6)
    800000fe:	0e0fbe07          	fld	ft8,224(t6)
    80000102:	0e8fae87          	flw	ft9,232(t6)
    80000106:	0f0faf07          	flw	ft10,240(t6)
    8000010a:	0f8faf87          	flw	ft11,248(t6)
    8000010e:	8082                	ret

0000000080000110 <_fuzz_suffix>:
    80000110:	0239613b          	remw	sp,s2,gp

0000000080000114 <_s1>:
    80000114:	012e98bb          	sllw	a7,t4,s2

0000000080000118 <_s2>:
    80000118:	01d7c263          	blt	a5,t4,8000011c <_s3>

000000008000011c <_s3>:
    8000011c:	01b0d93b          	srlw	s2,ra,s11

0000000080000120 <_s4>:
    80000120:	00020317          	auipc	t1,0x20
    80000124:	fc030313          	addi	t1,t1,-64 # 800200e0 <d_1_12>
    80000128:	fe431b83          	lh	s7,-28(t1)

000000008000012c <_end_suffix>:
    8000012c:	00000073          	ecall

0000000080000130 <csr_dump>:
    80000130:	00002097          	auipc	ra,0x2
    80000134:	0d008093          	addi	ra,ra,208 # 80002200 <csr_output_data>
    80000138:	10002173          	csrr	sp,sstatus
    8000013c:	0420bc23          	sd	sp,88(ra)
    80000140:	10402173          	csrr	sp,sie
    80000144:	0620b823          	sd	sp,112(ra)
    80000148:	10502173          	csrr	sp,stvec
    8000014c:	0620bc23          	sd	sp,120(ra)
    80000150:	10602173          	csrr	sp,scounteren
    80000154:	0820b023          	sd	sp,128(ra)
    80000158:	14002173          	csrr	sp,sscratch
    8000015c:	0820b423          	sd	sp,136(ra)
    80000160:	14102173          	csrr	sp,sepc
    80000164:	0820b823          	sd	sp,144(ra)
    80000168:	14202173          	csrr	sp,scause
    8000016c:	0820bc23          	sd	sp,152(ra)
    80000170:	14302173          	csrr	sp,stval
    80000174:	0a20b023          	sd	sp,160(ra)
    80000178:	14402173          	csrr	sp,sip
    8000017c:	f7f17113          	andi	sp,sp,-129
    80000180:	0a20b423          	sd	sp,168(ra)
    80000184:	18002173          	csrr	sp,satp
    80000188:	0a20b823          	sd	sp,176(ra)
    8000018c:	f1402173          	csrr	sp,mhartid
    80000190:	0a20bc23          	sd	sp,184(ra)
    80000194:	30002173          	csrr	sp,mstatus
    80000198:	0c20b023          	sd	sp,192(ra)
    8000019c:	30202173          	csrr	sp,medeleg
    800001a0:	0c20b423          	sd	sp,200(ra)
    800001a4:	30302173          	csrr	sp,mideleg
    800001a8:	0c20b823          	sd	sp,208(ra)
    800001ac:	30402173          	csrr	sp,mie
    800001b0:	0c20bc23          	sd	sp,216(ra)
    800001b4:	30502173          	csrr	sp,mtvec
    800001b8:	0e20b023          	sd	sp,224(ra)
    800001bc:	30602173          	csrr	sp,mcounteren
    800001c0:	0e20b423          	sd	sp,232(ra)
    800001c4:	34002173          	csrr	sp,mscratch
    800001c8:	0e20b823          	sd	sp,240(ra)
    800001cc:	34102173          	csrr	sp,mepc
    800001d0:	0e20bc23          	sd	sp,248(ra)
    800001d4:	34202173          	csrr	sp,mcause
    800001d8:	1020b023          	sd	sp,256(ra)
    800001dc:	34302173          	csrr	sp,mtval
    800001e0:	1020b423          	sd	sp,264(ra)
    800001e4:	34402173          	csrr	sp,mip
    800001e8:	f7f17113          	andi	sp,sp,-129
    800001ec:	1020b823          	sd	sp,272(ra)
    800001f0:	3a002173          	csrr	sp,pmpcfg0
    800001f4:	1020bc23          	sd	sp,280(ra)
    800001f8:	3b002173          	csrr	sp,pmpaddr0
    800001fc:	1220bc23          	sd	sp,312(ra)
    80000200:	3b102173          	csrr	sp,pmpaddr1
    80000204:	1420b023          	sd	sp,320(ra)
    80000208:	3b202173          	csrr	sp,pmpaddr2
    8000020c:	1420b423          	sd	sp,328(ra)
    80000210:	3b302173          	csrr	sp,pmpaddr3
    80000214:	1420b823          	sd	sp,336(ra)
    80000218:	3b402173          	csrr	sp,pmpaddr4
    8000021c:	1420bc23          	sd	sp,344(ra)
    80000220:	3b502173          	csrr	sp,pmpaddr5
    80000224:	1620b023          	sd	sp,352(ra)
    80000228:	3b602173          	csrr	sp,pmpaddr6
    8000022c:	1620b423          	sd	sp,360(ra)
    80000230:	3b702173          	csrr	sp,pmpaddr7
    80000234:	1620b823          	sd	sp,368(ra)
    80000238:	6519                	lui	a0,0x6
    8000023a:	30052073          	csrs	mstatus,a0

000000008000023e <fcsrs_dump>:
    8000023e:	00102173          	frflags	sp
    80000242:	0420b023          	sd	sp,64(ra)
    80000246:	00202173          	frrm	sp
    8000024a:	0420b423          	sd	sp,72(ra)
    8000024e:	00302173          	frcsr	sp
    80000252:	0420b823          	sd	sp,80(ra)

0000000080000256 <reg_dump>:
    80000256:	00002097          	auipc	ra,0x2
    8000025a:	daa08093          	addi	ra,ra,-598 # 80002000 <begin_signature>
    8000025e:	0000b023          	sd	zero,0(ra)
    80000262:	0020b823          	sd	sp,16(ra)
    80000266:	0030bc23          	sd	gp,24(ra)
    8000026a:	0240b023          	sd	tp,32(ra)
    8000026e:	0250b423          	sd	t0,40(ra)
    80000272:	0260b823          	sd	t1,48(ra)
    80000276:	0270bc23          	sd	t2,56(ra)
    8000027a:	0480b023          	sd	s0,64(ra)
    8000027e:	0490b423          	sd	s1,72(ra)
    80000282:	04a0b823          	sd	a0,80(ra)
    80000286:	04b0bc23          	sd	a1,88(ra)
    8000028a:	06c0b023          	sd	a2,96(ra)
    8000028e:	06d0b423          	sd	a3,104(ra)
    80000292:	06e0b823          	sd	a4,112(ra)
    80000296:	06f0bc23          	sd	a5,120(ra)
    8000029a:	0900b023          	sd	a6,128(ra)
    8000029e:	0910b423          	sd	a7,136(ra)
    800002a2:	0920b823          	sd	s2,144(ra)
    800002a6:	0930bc23          	sd	s3,152(ra)
    800002aa:	0b40b023          	sd	s4,160(ra)
    800002ae:	0b50b423          	sd	s5,168(ra)
    800002b2:	0b60b823          	sd	s6,176(ra)
    800002b6:	0b70bc23          	sd	s7,184(ra)
    800002ba:	0d80b023          	sd	s8,192(ra)
    800002be:	0d90b423          	sd	s9,200(ra)
    800002c2:	0db0bc23          	sd	s11,216(ra)
    800002c6:	0fc0b023          	sd	t3,224(ra)
    800002ca:	0fd0b423          	sd	t4,232(ra)
    800002ce:	0fe0b823          	sd	t5,240(ra)

00000000800002d2 <freg_dump>:
    800002d2:	00002097          	auipc	ra,0x2
    800002d6:	e2e08093          	addi	ra,ra,-466 # 80002100 <freg_output_data>
    800002da:	0010a427          	fsw	ft1,8(ra)
    800002de:	0020a827          	fsw	ft2,16(ra)
    800002e2:	0270ac27          	fsw	ft7,56(ra)
    800002e6:	0490a427          	fsw	fs1,72(ra)
    800002ea:	04a0a827          	fsw	fa0,80(ra)
    800002ee:	06c0a027          	fsw	fa2,96(ra)
    800002f2:	06d0a427          	fsw	fa3,104(ra)
    800002f6:	0b50a427          	fsw	fs5,168(ra)
    800002fa:	0b60a827          	fsw	fs6,176(ra)
    800002fe:	0d90a427          	fsw	fs9,200(ra)
    80000302:	0da0a827          	fsw	fs10,208(ra)
    80000306:	0fc0a027          	fsw	ft8,224(ra)
    8000030a:	0fd0a427          	fsw	ft9,232(ra)
    8000030e:	0fe0a827          	fsw	ft10,240(ra)
    80000312:	0ff0ac27          	fsw	ft11,248(ra)
    80000316:	00002097          	auipc	ra,0x2
    8000031a:	dea08093          	addi	ra,ra,-534 # 80002100 <freg_output_data>
    8000031e:	0000b027          	fsd	ft0,0(ra)
    80000322:	0030bc27          	fsd	ft3,24(ra)
    80000326:	0240b027          	fsd	ft4,32(ra)
    8000032a:	0250b427          	fsd	ft5,40(ra)
    8000032e:	0260b827          	fsd	ft6,48(ra)
    80000332:	0480b027          	fsd	fs0,64(ra)
    80000336:	04b0bc27          	fsd	fa1,88(ra)
    8000033a:	06e0b827          	fsd	fa4,112(ra)
    8000033e:	06f0bc27          	fsd	fa5,120(ra)
    80000342:	0900b027          	fsd	fa6,128(ra)
    80000346:	0910b427          	fsd	fa7,136(ra)
    8000034a:	0920b827          	fsd	fs2,144(ra)
    8000034e:	0930bc27          	fsd	fs3,152(ra)
    80000352:	0b40b027          	fsd	fs4,160(ra)
    80000356:	0b70bc27          	fsd	fs7,184(ra)
    8000035a:	0d80b027          	fsd	fs8,192(ra)
    8000035e:	0db0bc27          	fsd	fs11,216(ra)

0000000080000362 <write_tohost>:
    80000362:	4185                	li	gp,1
    80000364:	00001f17          	auipc	t5,0x1
    80000368:	c83f2e23          	sw	gp,-868(t5) # 80001000 <tohost>

000000008000036c <_test_end>:
    8000036c:	a001                	j	8000036c <_test_end>

000000008000036e <reset_vector>:
    8000036e:	30005073          	csrwi	mstatus,0
    80000372:	f1402573          	csrr	a0,mhartid
    80000376:	e101                	bnez	a0,80000376 <reset_vector+0x8>
    80000378:	00000297          	auipc	t0,0x0
    8000037c:	01828293          	addi	t0,t0,24 # 80000390 <reset_vector+0x22>
    80000380:	30529073          	csrw	mtvec,t0
    80000384:	30205073          	csrwi	medeleg,0
    80000388:	30305073          	csrwi	mideleg,0
    8000038c:	30405073          	csrwi	mie,0
    80000390:	00000297          	auipc	t0,0x0
    80000394:	01028293          	addi	t0,t0,16 # 800003a0 <reset_vector+0x32>
    80000398:	30529073          	csrw	mtvec,t0
    8000039c:	18005073          	csrwi	satp,0
    800003a0:	00000297          	auipc	t0,0x0
    800003a4:	02028293          	addi	t0,t0,32 # 800003c0 <reset_vector+0x52>
    800003a8:	30529073          	csrw	mtvec,t0
    800003ac:	0010029b          	addiw	t0,zero,1
    800003b0:	12d6                	slli	t0,t0,0x35
    800003b2:	12fd                	addi	t0,t0,-1
    800003b4:	3b029073          	csrw	pmpaddr0,t0
    800003b8:	42fd                	li	t0,31
    800003ba:	3a029073          	csrw	pmpcfg0,t0
    800003be:	0001                	nop
    800003c0:	00000297          	auipc	t0,0x0
    800003c4:	d7028293          	addi	t0,t0,-656 # 80000130 <csr_dump>
    800003c8:	30529073          	csrw	mtvec,t0
    800003cc:	4181                	li	gp,0
    800003ce:	4505                	li	a0,1
    800003d0:	057e                	slli	a0,a0,0x1f
    800003d2:	00055a63          	bgez	a0,800003e6 <reset_vector+0x78>
    800003d6:	0ff0000f          	fence
    800003da:	4185                	li	gp,1
    800003dc:	05d00893          	li	a7,93
    800003e0:	4501                	li	a0,0
    800003e2:	00000073          	ecall
    800003e6:	00000297          	auipc	t0,0x0
    800003ea:	d2a28293          	addi	t0,t0,-726 # 80000110 <_fuzz_suffix>
    800003ee:	10529073          	csrw	stvec,t0
    800003f2:	62ad                	lui	t0,0xb
    800003f4:	1092829b          	addiw	t0,t0,265 # b109 <_start-0x7fff4ef7>
    800003f8:	3022a073          	csrs	medeleg,t0
    800003fc:	6519                	lui	a0,0x6
    800003fe:	30052073          	csrs	mstatus,a0
    80000402:	00305073          	csrwi	fcsr,0
    80000406:	c81ff0ef          	jal	ra,80000086 <init_freg>
    8000040a:	b0201073          	csrw	minstret,zero
    8000040e:	f1402573          	csrr	a0,mhartid

0000000080000412 <_fuzz_prefix>:
    80000412:	104f66f3          	csrrsi	a3,sie,30

0000000080000416 <_p1>:
    80000416:	002fe573          	csrrsi	a0,frm,31

000000008000041a <_end_prefix>:
    8000041a:	00000297          	auipc	t0,0x0
    8000041e:	02628293          	addi	t0,t0,38 # 80000440 <_fuzz_main>
    80000422:	34129073          	csrw	mepc,t0
    80000426:	4281                	li	t0,0
    80000428:	30200073          	mret
    8000042c:	00000013          	nop
    80000430:	00000013          	nop
    80000434:	00000013          	nop
    80000438:	00000013          	nop
    8000043c:	00000013          	nop

0000000080000440 <_fuzz_main>:
    80000440:	00020117          	auipc	sp,0x20
    80000444:	d3010113          	addi	sp,sp,-720 # 80020170 <d_1_21>
    80000448:	0171                	addi	sp,sp,28
    8000044a:	81712c2f          	amomin.w	s8,s7,(sp)

000000008000044e <_l1>:
    8000044e:	0324843b          	mulw	s0,s1,s2

0000000080000452 <_l2>:
    80000452:	01b3dabb          	srlw	s5,t2,s11

0000000080000456 <_l3>:
    80000456:	a080a6d3          	feq.s	a3,ft1,fs0

000000008000045a <_l4>:
    8000045a:	00060197          	auipc	gp,0x60
    8000045e:	c2618193          	addi	gp,gp,-986 # 80060080 <d_5_6>
    80000462:	0141b023          	sd	s4,0(gp)

0000000080000466 <_l5>:
    80000466:	c02df653          	fcvt.l.s	a2,fs11

000000008000046a <_l6>:
    8000046a:	00000217          	auipc	tp,0x0
    8000046e:	09c20213          	addi	tp,tp,156 # 80000506 <_l23>
    80000472:	04121073          	csrw	uepc,tp
    80000476:	00200073          	uret

000000008000047a <_l7>:
    8000047a:	1040dbf3          	csrrwi	s7,sie,1

000000008000047e <_l8>:
    8000047e:	c96ccb47          	fmsub.s	fs6,fs9,fs6,fs9,rmm

0000000080000482 <_l9>:
    80000482:	391a954f          	fnmadd.s	fa0,fs5,fa7,ft7,rtz

0000000080000486 <_l10>:
    80000486:	5fddfd93          	andi	s11,s11,1533

000000008000048a <_l11>:
    8000048a:	00010417          	auipc	s0,0x10
    8000048e:	cf640413          	addi	s0,s0,-778 # 80010180 <d_0_22>
    80000492:	1441                	addi	s0,s0,-16
    80000494:	01b436af          	amoadd.d	a3,s11,(s0)

0000000080000498 <_l12>:
    80000498:	6e57ea17          	auipc	s4,0x6e57e

000000008000049c <_l13>:
    8000049c:	0330653b          	remw	a0,zero,s3

00000000800004a0 <_l14>:
    800004a0:	24a54a63          	blt	a0,a0,800006f4 <_l84>

00000000800004a4 <_l15>:
    800004a4:	00050197          	auipc	gp,0x50
    800004a8:	c6c18193          	addi	gp,gp,-916 # 80050110 <d_4_15>
    800004ac:	01d18fa3          	sb	t4,31(gp)

00000000800004b0 <_l16>:
    800004b0:	00020f97          	auipc	t6,0x20
    800004b4:	c70f8f93          	addi	t6,t6,-912 # 80020120 <d_1_16>
    800004b8:	000fd203          	lhu	tp,0(t6)

00000000800004bc <_l17>:
    800004bc:	00060217          	auipc	tp,0x60
    800004c0:	c5420213          	addi	tp,tp,-940 # 80060110 <d_5_15>
    800004c4:	ffe002b7          	lui	t0,0xffe00
    800004c8:	00524233          	xor	tp,tp,t0
    800004cc:	00426203          	lwu	tp,4(tp) # 4 <_start-0x7ffffffc>

00000000800004d0 <_l18>:
    800004d0:	00040a97          	auipc	s5,0x40
    800004d4:	cb0a8a93          	addi	s5,s5,-848 # 80040180 <d_3_22>
    800004d8:	401ada93          	srai	s5,s5,0x1
    800004dc:	3b5ab173          	csrrc	sp,pmpaddr5,s5

00000000800004e0 <_l19>:
    800004e0:	00010717          	auipc	a4,0x10
    800004e4:	cc070713          	addi	a4,a4,-832 # 800101a0 <d_0_24>
    800004e8:	ffe00737          	lui	a4,0xffe00
    800004ec:	8f39                	xor	a4,a4,a4
    800004ee:	00572423          	sw	t0,8(a4) # ffffffffffe00008 <_end+0xffffffff7fd9fe08>

00000000800004f2 <_l20>:
    800004f2:	0282c13b          	divw	sp,t0,s0

00000000800004f6 <_l21>:
    800004f6:	00030897          	auipc	a7,0x30
    800004fa:	bba88893          	addi	a7,a7,-1094 # 800300b0 <d_2_9>
    800004fe:	0088e583          	lwu	a1,8(a7)

0000000080000502 <_l22>:
    80000502:	02240133          	mul	sp,s0,sp

0000000080000506 <_l23>:
    80000506:	00060c17          	auipc	s8,0x60
    8000050a:	baac0c13          	addi	s8,s8,-1110 # 800600b0 <d_5_9>
    8000050e:	1c61                	addi	s8,s8,-8
    80000510:	413c342f          	amoor.d	s0,s3,(s8)

0000000080000514 <_l24>:
    80000514:	d00ac1d3          	fcvt.s.w	ft3,s5,rmm

0000000080000518 <_l25>:
    80000518:	41bad1bb          	sraw	gp,s5,s11

000000008000051c <_l26>:
    8000051c:	00020497          	auipc	s1,0x20
    80000520:	b1448493          	addi	s1,s1,-1260 # 80020030 <d_1_1>
    80000524:	fe348123          	sb	gp,-30(s1)

0000000080000528 <_l27>:
    80000528:	f0050453          	fmv.w.x	fs0,a0

000000008000052c <_l28>:
    8000052c:	7ff47593          	andi	a1,s0,2047

0000000080000530 <_l29>:
    80000530:	3041fb73          	csrrci	s6,mie,3

0000000080000534 <_l30>:
    80000534:	024b553b          	divuw	a0,s6,tp

0000000080000538 <_l31>:
    80000538:	00050c97          	auipc	s9,0x50
    8000053c:	be8c8c93          	addi	s9,s9,-1048 # 80050120 <d_4_16>
    80000540:	1cd1                	addi	s9,s9,-12
    80000542:	601caeaf          	amoand.w	t4,ra,(s9)

0000000080000546 <_l32>:
    80000546:	00030e97          	auipc	t4,0x30
    8000054a:	afae8e93          	addi	t4,t4,-1286 # 80030040 <d_2_2>
    8000054e:	fe2eae23          	sw	sp,-4(t4)

0000000080000552 <_l33>:
    80000552:	036009ef          	jal	s3,80000588 <_l41>

0000000080000556 <_l34>:
    80000556:	00040597          	auipc	a1,0x40
    8000055a:	c5a58593          	addi	a1,a1,-934 # 800401b0 <d_3_25>
    8000055e:	85ae                	mv	a1,a1
    80000560:	0095bdaf          	amoadd.d	s11,s1,(a1)

0000000080000564 <_l35>:
    80000564:	00020217          	auipc	tp,0x20
    80000568:	b8c20213          	addi	tp,tp,-1140 # 800200f0 <d_1_13>
    8000056c:	1241                	addi	tp,tp,-16 # fffffffffffffff0 <_end+0xffffffff7ff9fdf0>
    8000056e:	4152352f          	amoor.d	a0,s5,(tp)

0000000080000572 <_l36>:
    80000572:	8c21                	xor	s0,s0,s0
    80000574:	144424f3          	csrrs	s1,sip,s0

0000000080000578 <_l37>:
    80000578:	000b3793          	sltiu	a5,s6,0

000000008000057c <_l38>:
    8000057c:	00342c53          	fadd.s	fs8,fs0,ft3,rdn

0000000080000580 <_l39>:
    80000580:	00681293          	slli	t0,a6,0x6

0000000080000584 <_l40>:
    80000584:	021a72bb          	remuw	t0,s4,ra

0000000080000588 <_l41>:
    80000588:	00040217          	auipc	tp,0x40
    8000058c:	c2820213          	addi	tp,tp,-984 # 800401b0 <d_3_25>
    80000590:	1211                	addi	tp,tp,-28 # ffffffffffffffe4 <_end+0xffffffff7ff9fde4>
    80000592:	2022292f          	amoxor.w	s2,sp,(tp)

0000000080000596 <_l42>:
    80000596:	f0048553          	fmv.w.x	fa0,s1

000000008000059a <_l43>:
    8000059a:	00ee2653          	fadd.s	fa2,ft8,fa4,rdn

000000008000059e <_l44>:
    8000059e:	00060817          	auipc	a6,0x60
    800005a2:	ad280813          	addi	a6,a6,-1326 # 80060070 <d_5_5>
    800005a6:	1841                	addi	a6,a6,-16
    800005a8:	ffe00cb7          	lui	s9,0xffe00
    800005ac:	01984833          	xor	a6,a6,s9
    800005b0:	0998352f          	amoswap.d	a0,s9,(a6)

00000000800005b4 <_l45>:
    800005b4:	1d857e93          	andi	t4,a0,472

00000000800005b8 <_l46>:
    800005b8:	e0018ed3          	fmv.x.w	t4,ft3

00000000800005bc <_l47>:
    800005bc:	1957ed93          	ori	s11,a5,405

00000000800005c0 <_l48>:
    800005c0:	002977f3          	csrrci	a5,frm,18

00000000800005c4 <_l49>:
    800005c4:	02a6f53b          	remuw	a0,a3,a0

00000000800005c8 <_l50>:
    800005c8:	0118c8b3          	xor	a7,a7,a7
    800005cc:	4d05                	li	s10,1
    800005ce:	0d0e                	slli	s10,s10,0x3
    800005d0:	98ea                	add	a7,a7,s10
    800005d2:	f148be73          	csrrc	t3,mhartid,a7

00000000800005d6 <_l51>:
    800005d6:	d0199053          	fcvt.s.wu	ft0,s3,rtz

00000000800005da <_l52>:
    800005da:	03e133b3          	mulhu	t2,sp,t5

00000000800005de <_l53>:
    800005de:	aa023cb7          	lui	s9,0xaa023

00000000800005e2 <_l54>:
    800005e2:	17a7db63          	bge	a5,s10,80000758 <_l95>

00000000800005e6 <_l55>:
    800005e6:	00050e97          	auipc	t4,0x50
    800005ea:	a3ae8e93          	addi	t4,t4,-1478 # 80050020 <d_4_0>
    800005ee:	8ef6                	mv	t4,t4
    800005f0:	e12eb22f          	amomaxu.d	tp,s2,(t4)

00000000800005f4 <_l56>:
    800005f4:	8dad                	xor	a1,a1,a1
    800005f6:	141592f3          	csrrw	t0,sepc,a1

00000000800005fa <_l57>:
    800005fa:	0f0a7093          	andi	ra,s4,240

00000000800005fe <_l58>:
    800005fe:	01d4d49b          	srliw	s1,s1,0x1d

0000000080000602 <_l59>:
    80000602:	0158963b          	sllw	a2,a7,s5

0000000080000606 <_l60>:
    80000606:	000a961b          	slliw	a2,s5,0x0

000000008000060a <_l61>:
    8000060a:	00010f17          	auipc	t5,0x10
    8000060e:	b16f0f13          	addi	t5,t5,-1258 # 80010120 <d_0_16>
    80000612:	1f21                	addi	t5,t5,-24
    80000614:	c1af3eaf          	amominu.d	t4,s10,(t5)

0000000080000618 <_l62>:
    80000618:	0d4006ef          	jal	a3,800006ec <_l82>

000000008000061c <_l63>:
    8000061c:	0ff0000f          	fence

0000000080000620 <_l64>:
    80000620:	7723ae13          	slti	t3,t2,1906

0000000080000624 <_l65>:
    80000624:	00000597          	auipc	a1,0x0
    80000628:	0d058593          	addi	a1,a1,208 # 800006f4 <_l84>
    8000062c:	34159073          	csrw	mepc,a1
    80000630:	30200073          	mret

0000000080000634 <_l66>:
    80000634:	19463447          	fmsub.s	fs0,fa2,fs4,ft3,rup

0000000080000638 <_l67>:
    80000638:	00010417          	auipc	s0,0x10
    8000063c:	af840413          	addi	s0,s0,-1288 # 80010130 <d_0_17>
    80000640:	8422                	mv	s0,s0
    80000642:	18843b2f          	sc.d	s6,s0,(s0)

0000000080000646 <_l68>:
    80000646:	00060697          	auipc	a3,0x60
    8000064a:	aaa68693          	addi	a3,a3,-1366 # 800600f0 <d_5_13>
    8000064e:	06c1                	addi	a3,a3,16
    80000650:	6046b62f          	amoand.d	a2,tp,(a3)

0000000080000654 <_l69>:
    80000654:	00000b17          	auipc	s6,0x0
    80000658:	072b0b13          	addi	s6,s6,114 # 800006c6 <_l78>
    8000065c:	341b1073          	csrw	mepc,s6
    80000660:	30200073          	mret

0000000080000664 <_l70>:
    80000664:	00050d97          	auipc	s11,0x50
    80000668:	a5cd8d93          	addi	s11,s11,-1444 # 800500c0 <d_4_10>
    8000066c:	011db023          	sd	a7,0(s11)

0000000080000670 <_l71>:
    80000670:	00030d17          	auipc	s10,0x30
    80000674:	a50d0d13          	addi	s10,s10,-1456 # 800300c0 <d_2_10>
    80000678:	401d5d13          	srai	s10,s10,0x1
    8000067c:	3b0d2cf3          	csrrs	s9,pmpaddr0,s10

0000000080000680 <_l72>:
    80000680:	00040217          	auipc	tp,0x40
    80000684:	a7020213          	addi	tp,tp,-1424 # 800400f0 <d_3_13>
    80000688:	1211                	addi	tp,tp,-28 # ffffffffffffffe4 <_end+0xffffffff7ff9fde4>
    8000068a:	615225af          	amoand.w	a1,s5,(tp)

000000008000068e <_l73>:
    8000068e:	00050e17          	auipc	t3,0x50
    80000692:	9f2e0e13          	addi	t3,t3,-1550 # 80050080 <d_4_6>
    80000696:	003e3023          	sd	gp,0(t3)

000000008000069a <_l74>:
    8000069a:	00060d17          	auipc	s10,0x60
    8000069e:	ae6d0d13          	addi	s10,s10,-1306 # 80060180 <d_5_22>
    800006a2:	1d51                	addi	s10,s10,-12
    800006a4:	100d282f          	lr.w	a6,(s10)

00000000800006a8 <_l75>:
    800006a8:	00030a97          	auipc	s5,0x30
    800006ac:	ab8a8a93          	addi	s5,s5,-1352 # 80030160 <d_2_20>
    800006b0:	01ea9023          	sh	t5,0(s5)

00000000800006b4 <_l76>:
    800006b4:	c0224853          	fcvt.l.s	a6,ft4,rmm

00000000800006b8 <_l77>:
    800006b8:	00050517          	auipc	a0,0x50
    800006bc:	99850513          	addi	a0,a0,-1640 # 80050050 <d_4_3>
    800006c0:	0511                	addi	a0,a0,4
    800006c2:	1005222f          	lr.w	tp,(a0)

00000000800006c6 <_l78>:
    800006c6:	d03e9753          	fcvt.s.lu	fa4,t4,rtz

00000000800006ca <_l79>:
    800006ca:	00050a97          	auipc	s5,0x50
    800006ce:	a86a8a93          	addi	s5,s5,-1402 # 80050150 <d_4_19>
    800006d2:	1ae1                	addi	s5,s5,-8
    800006d4:	e03aad2f          	amomaxu.w	s10,gp,(s5)

00000000800006d8 <_l80>:
    800006d8:	c03faf53          	fcvt.lu.s	t5,ft11,rdn

00000000800006dc <_l81>:
    800006dc:	00000717          	auipc	a4,0x0
    800006e0:	03c70713          	addi	a4,a4,60 # 80000718 <_l88>
    800006e4:	34171073          	csrw	mepc,a4
    800006e8:	30200073          	mret

00000000800006ec <_l82>:
    800006ec:	021f4063          	blt	t5,ra,8000070c <_l87>

00000000800006f0 <_l83>:
    800006f0:	d02e9cd3          	fcvt.s.l	fs9,t4,rtz

00000000800006f4 <_l84>:
    800006f4:	00000717          	auipc	a4,0x0
    800006f8:	06070713          	addi	a4,a4,96 # 80000754 <_l94>
    800006fc:	34171073          	csrw	mepc,a4
    80000700:	30200073          	mret

0000000080000704 <_l85>:
    80000704:	017c8cbb          	addw	s9,s9,s7

0000000080000708 <_l86>:
    80000708:	02101613          	slli	a2,zero,0x21

000000008000070c <_l87>:
    8000070c:	00000717          	auipc	a4,0x0
    80000710:	d7270713          	addi	a4,a4,-654 # 8000047e <_l8>
    80000714:	00073e03          	ld	t3,0(a4)

0000000080000718 <_l88>:
    80000718:	0ff0000f          	fence

000000008000071c <_l89>:
    8000071c:	00010097          	auipc	ra,0x10
    80000720:	90408093          	addi	ra,ra,-1788 # 80010020 <d_0_0>
    80000724:	0000cb03          	lbu	s6,0(ra)

0000000080000728 <_l90>:
    80000728:	00050117          	auipc	sp,0x50
    8000072c:	91810113          	addi	sp,sp,-1768 # 80050040 <d_4_2>
    80000730:	810a                	mv	sp,sp
    80000732:	e1713baf          	amomaxu.d	s7,s7,(sp)

0000000080000736 <_l91>:
    80000736:	00000b17          	auipc	s6,0x0
    8000073a:	00cb0b13          	addi	s6,s6,12 # 80000742 <_l92>
    8000073e:	010b3383          	ld	t2,16(s6)

0000000080000742 <_l92>:
    80000742:	03cbc4b3          	div	s1,s7,t3

0000000080000746 <_l93>:
    80000746:	00020117          	auipc	sp,0x20
    8000074a:	92a10113          	addi	sp,sp,-1750 # 80020070 <d_1_5>
    8000074e:	810a                	mv	sp,sp
    80000750:	a181372f          	amomax.d	a4,s8,(sp)

0000000080000754 <_l94>:
    80000754:	027b6ebb          	remw	t4,s6,t2

0000000080000758 <_l95>:
    80000758:	00000497          	auipc	s1,0x0
    8000075c:	cfa48493          	addi	s1,s1,-774 # 80000452 <_l2>
    80000760:	6c88                	ld	a0,24(s1)

0000000080000762 <_l96>:
    80000762:	00000073          	ecall
	...

0000000080000768 <_end_main>:
	...
